; Function Attrs: mustprogress uwtable
define dso_local void @_ZN11cmXMLWriter21ProcessingInstructionEPKcS1_(ptr noundef nonnull align 8 captures(none) dereferenceable(83) %0, ptr noundef %1, ptr noundef %2) local_unnamed_addr #0 align 2 {
  %4 = alloca i8, align 1
  %5 = alloca i8, align 1
  tail call void @_ZN11cmXMLWriter17CloseStartElementEv(ptr noundef nonnull align 8 dereferenceable(83) %0)
  %6 = getelementptr inbounds nuw i8, ptr %0, i64 82
  %7 = load i8, ptr %6, align 2, !tbaa !45, !range !46, !noundef !47
  %8 = trunc nuw i8 %7 to i1
  br i1 %8, label %_ZN11cmXMLWriter20ConditionalLineBreakEb.exit, label %9

9:                                                ; preds = %3
  %10 = load ptr, ptr %0, align 8, !tbaa !31
  call void @llvm.lifetime.start.p0(i64 1, ptr nonnull %5)
  store i8 10, ptr %5, align 1, !tbaa !27
  %11 = load ptr, ptr %10, align 8, !tbaa !32
  %12 = getelementptr i8, ptr %11, i64 -24
  %13 = load i64, ptr %12, align 8
  %14 = getelementptr inbounds i8, ptr %10, i64 %13
  %15 = getelementptr inbounds nuw i8, ptr %14, i64 16
  %16 = load i64, ptr %15, align 8, !tbaa !44
  %.not.i.i = icmp eq i64 %16, 0
  br i1 %.not.i.i, label %19, label %17

17:                                               ; preds = %9
  %18 = call noundef nonnull align 8 dereferenceable(8) ptr @_ZSt16__ostream_insertIcSt11char_traitsIcEERSt13basic_ostreamIT_T0_ES6_PKS3_l(ptr noundef nonnull align 8 dereferenceable(8) %10, ptr noundef nonnull %5, i64 noundef 1)
  br label %_ZStlsISt11char_traitsIcEERSt13basic_ostreamIcT_ES5_c.exit.i

19:                                               ; preds = %9
  %20 = tail call noundef nonnull align 8 dereferenceable(8) ptr @_ZNSo3putEc(ptr noundef nonnull align 8 dereferenceable(8) %10, i8 noundef signext 10)
  br label %_ZStlsISt11char_traitsIcEERSt13basic_ostreamIcT_ES5_c.exit.i

_ZStlsISt11char_traitsIcEERSt13basic_ostreamIcT_ES5_c.exit.i: ; preds = %19, %17
  call void @llvm.lifetime.end.p0(i64 1, ptr nonnull %5)
  %21 = getelementptr inbounds nuw i8, ptr %0, i64 72
  %22 = getelementptr inbounds nuw i8, ptr %0, i64 64
  %23 = load i64, ptr %21, align 8, !tbaa !48
  %24 = load i64, ptr %22, align 8, !tbaa !12
  %25 = sub i64 0, %23
  %.not.i = icmp eq i64 %24, %25
  br i1 %.not.i, label %_ZN11cmXMLWriter20ConditionalLineBreakEb.exit, label %.lr.ph.i

.lr.ph.i:                                         ; preds = %_ZStlsISt11char_traitsIcEERSt13basic_ostreamIcT_ES5_c.exit.i
  %26 = getelementptr inbounds nuw i8, ptr %0, i64 32
  %27 = getelementptr inbounds nuw i8, ptr %0, i64 40
  br label %28

28:                                               ; preds = %28, %.lr.ph.i
  %.03.i = phi i64 [ 0, %.lr.ph.i ], [ %33, %28 ]
  %29 = load ptr, ptr %0, align 8, !tbaa !31
  %30 = load ptr, ptr %26, align 8, !tbaa !25
  %31 = load i64, ptr %27, align 8, !tbaa !26
  %32 = call noundef nonnull align 8 dereferenceable(8) ptr @_ZSt16__ostream_insertIcSt11char_traitsIcEERSt13basic_ostreamIT_T0_ES6_PKS3_l(ptr noundef nonnull align 8 dereferenceable(8) %29, ptr noundef %30, i64 noundef %31)
  %33 = add nuw i64 %.03.i, 1
  %34 = load i64, ptr %21, align 8, !tbaa !48
  %35 = load i64, ptr %22, align 8, !tbaa !12
  %36 = add i64 %35, %34
  %37 = icmp ult i64 %33, %36
  br i1 %37, label %28, label %_ZN11cmXMLWriter20ConditionalLineBreakEb.exit, !llvm.loop !49

_ZN11cmXMLWriter20ConditionalLineBreakEb.exit:    ; preds = %28, %3, %_ZStlsISt11char_traitsIcEERSt13basic_ostreamIcT_ES5_c.exit.i
  %38 = load ptr, ptr %0, align 8, !tbaa !31
  %39 = call noundef nonnull align 8 dereferenceable(8) ptr @_ZSt16__ostream_insertIcSt11char_traitsIcEERSt13basic_ostreamIT_T0_ES6_PKS3_l(ptr noundef nonnull align 8 dereferenceable(8) %38, ptr noundef nonnull @.str.10, i64 noundef 2)
  %.not.i3 = icmp eq ptr %1, null
  br i1 %.not.i3, label %40, label %48

40:                                               ; preds = %_ZN11cmXMLWriter20ConditionalLineBreakEb.exit
  %41 = load ptr, ptr %38, align 8, !tbaa !32
  %42 = getelementptr i8, ptr %41, i64 -24
  %43 = load i64, ptr %42, align 8
  %44 = getelementptr inbounds i8, ptr %38, i64 %43
  %45 = getelementptr inbounds nuw i8, ptr %44, i64 32
  %46 = load i32, ptr %45, align 8, !tbaa !34
  %47 = or i32 %46, 1
  call void @_ZNSt9basic_iosIcSt11char_traitsIcEE5clearESt12_Ios_Iostate(ptr noundef nonnull align 8 dereferenceable(264) %44, i32 noundef %47)
  br label %_ZStlsISt11char_traitsIcEERSt13basic_ostreamIcT_ES5_PKc.exit

48:                                               ; preds = %_ZN11cmXMLWriter20ConditionalLineBreakEb.exit
  %49 = call noundef i64 @strlen(ptr noundef nonnull dereferenceable(1) %1) #17
  %50 = call noundef nonnull align 8 dereferenceable(8) ptr @_ZSt16__ostream_insertIcSt11char_traitsIcEERSt13basic_ostreamIT_T0_ES6_PKS3_l(ptr noundef nonnull align 8 dereferenceable(8) %38, ptr noundef nonnull %1, i64 noundef %49)
  br label %_ZStlsISt11char_traitsIcEERSt13basic_ostreamIcT_ES5_PKc.exit

_ZStlsISt11char_traitsIcEERSt13basic_ostreamIcT_ES5_PKc.exit: ; preds = %40, %48
  call void @llvm.lifetime.start.p0(i64 1, ptr nonnull %4)
  store i8 32, ptr %4, align 1, !tbaa !27
  %51 = load ptr, ptr %38, align 8, !tbaa !32
  %52 = getelementptr i8, ptr %51, i64 -24
  %53 = load i64, ptr %52, align 8
  %54 = getelementptr inbounds i8, ptr %38, i64 %53
  %55 = getelementptr inbounds nuw i8, ptr %54, i64 16
  %56 = load i64, ptr %55, align 8, !tbaa !44
  %.not.i4 = icmp eq i64 %56, 0
  br i1 %.not.i4, label %59, label %57

57:                                               ; preds = %_ZStlsISt11char_traitsIcEERSt13basic_ostreamIcT_ES5_PKc.exit
  %58 = call noundef nonnull align 8 dereferenceable(8) ptr @_ZSt16__ostream_insertIcSt11char_traitsIcEERSt13basic_ostreamIT_T0_ES6_PKS3_l(ptr noundef nonnull align 8 dereferenceable(8) %38, ptr noundef nonnull %4, i64 noundef 1)
  br label %_ZStlsISt11char_traitsIcEERSt13basic_ostreamIcT_ES5_c.exit

59:                                               ; preds = %_ZStlsISt11char_traitsIcEERSt13basic_ostreamIcT_ES5_PKc.exit
  %60 = call noundef nonnull align 8 dereferenceable(8) ptr @_ZNSo3putEc(ptr noundef nonnull align 8 dereferenceable(8) %38, i8 noundef signext 32)
  br label %_ZStlsISt11char_traitsIcEERSt13basic_ostreamIcT_ES5_c.exit

_ZStlsISt11char_traitsIcEERSt13basic_ostreamIcT_ES5_c.exit: ; preds = %57, %59
  %.0.i = phi ptr [ %58, %57 ], [ %38, %59 ]
  call void @llvm.lifetime.end.p0(i64 1, ptr nonnull %4)
  %.not.i5 = icmp eq ptr %2, null
  br i1 %.not.i5, label %61, label %69

61:                                               ; preds = %_ZStlsISt11char_traitsIcEERSt13basic_ostreamIcT_ES5_c.exit
  %62 = load ptr, ptr %.0.i, align 8, !tbaa !32
  %63 = getelementptr i8, ptr %62, i64 -24
  %64 = load i64, ptr %63, align 8
  %65 = getelementptr inbounds i8, ptr %.0.i, i64 %64
  %66 = getelementptr inbounds nuw i8, ptr %65, i64 32
  %67 = load i32, ptr %66, align 8, !tbaa !34
  %68 = or i32 %67, 1
  call void @_ZNSt9basic_iosIcSt11char_traitsIcEE5clearESt12_Ios_Iostate(ptr noundef nonnull align 8 dereferenceable(264) %65, i32 noundef %68)
  br label %_ZStlsISt11char_traitsIcEERSt13basic_ostreamIcT_ES5_PKc.exit6

69:                                               ; preds = %_ZStlsISt11char_traitsIcEERSt13basic_ostreamIcT_ES5_c.exit
  %70 = call noundef i64 @strlen(ptr noundef nonnull dereferenceable(1) %2) #17
  %71 = call noundef nonnull align 8 dereferenceable(8) ptr @_ZSt16__ostream_insertIcSt11char_traitsIcEERSt13basic_ostreamIT_T0_ES6_PKS3_l(ptr noundef nonnull align 8 dereferenceable(8) %.0.i, ptr noundef nonnull %2, i64 noundef %70)
  br label %_ZStlsISt11char_traitsIcEERSt13basic_ostreamIcT_ES5_PKc.exit6

_ZStlsISt11char_traitsIcEERSt13basic_ostreamIcT_ES5_PKc.exit6: ; preds = %61, %69
  %72 = call noundef nonnull align 8 dereferenceable(8) ptr @_ZSt16__ostream_insertIcSt11char_traitsIcEERSt13basic_ostreamIT_T0_ES6_PKS3_l(ptr noundef nonnull align 8 dereferenceable(8) %.0.i, ptr noundef nonnull @.str.11, i64 noundef 2)
  ret void
}